; Function Attrs: mustprogress uwtable
define noundef zeroext i1 @_ZN5Ipopt10Journalist10AddJournalENS_8SmartPtrINS_7JournalEEE(ptr noundef nonnull align 8 dereferenceable(40) %0, ptr noundef %1) unnamed_addr #3 align 2 personality ptr @__gxx_personality_v0 {
  %3 = alloca %"class.std::__cxx11::basic_string", align 8
  %4 = alloca %"class.Ipopt::SmartPtr", align 8
  %5 = load ptr, ptr %1, align 8
  %6 = load ptr, ptr %5, align 8
  %7 = getelementptr inbounds i8, ptr %6, i64 16
  %8 = load ptr, ptr %7, align 8
  call void %8(ptr dead_on_unwind nonnull writable sret(%"class.std::__cxx11::basic_string") align 8 %3, ptr noundef nonnull align 8 dereferenceable(176) %5)
  %9 = load ptr, ptr %0, align 8
  %10 = getelementptr inbounds i8, ptr %9, i64 88
  %11 = load ptr, ptr %10, align 8
  invoke void %11(ptr dead_on_unwind nonnull writable sret(%"class.Ipopt::SmartPtr") align 8 %4, ptr noundef nonnull align 8 dereferenceable(40) %0, ptr noundef nonnull align 8 dereferenceable(32) %3)
          to label %12 unwind label %14

12:                                               ; preds = %2
  %13 = load ptr, ptr %4, align 8
  %.not = icmp eq ptr %13, null
  br i1 %.not, label %28, label %_ZNSt6vectorIN5Ipopt8SmartPtrINS0_7JournalEEESaIS3_EE9push_backERKS3_.exit.thread

14:                                               ; preds = %2
  %15 = landingpad { ptr, i32 }
          cleanup
  br label %_ZN5Ipopt8SmartPtrINS_7JournalEED2Ev.exit

16:                                               ; preds = %53
  %17 = landingpad { ptr, i32 }
          cleanup
  %18 = load ptr, ptr %4, align 8
  %.not.i.i = icmp eq ptr %18, null
  br i1 %.not.i.i, label %_ZN5Ipopt8SmartPtrINS_7JournalEED2Ev.exit, label %19

19:                                               ; preds = %16
  %20 = getelementptr inbounds i8, ptr %18, i64 8
  %21 = load i32, ptr %20, align 8
  %22 = add nsw i32 %21, -1
  store i32 %22, ptr %20, align 8
  %23 = icmp eq i32 %22, 0
  br i1 %23, label %24, label %_ZN5Ipopt8SmartPtrINS_7JournalEED2Ev.exit

24:                                               ; preds = %19
  %25 = load ptr, ptr %18, align 8
  %26 = getelementptr inbounds i8, ptr %25, i64 8
  %27 = load ptr, ptr %26, align 8
  call void %27(ptr noundef nonnull align 8 dereferenceable(176) %18) #20
  br label %_ZN5Ipopt8SmartPtrINS_7JournalEED2Ev.exit

28:                                               ; preds = %12
  %29 = getelementptr inbounds i8, ptr %0, i64 24
  %30 = load ptr, ptr %29, align 8
  %31 = getelementptr inbounds i8, ptr %0, i64 32
  %32 = load ptr, ptr %31, align 8
  %.not.i = icmp eq ptr %30, %32
  br i1 %.not.i, label %53, label %33

33:                                               ; preds = %28
  store ptr null, ptr %30, align 8
  %34 = load ptr, ptr %1, align 8
  %.not.i.i.i.i.i.i = icmp eq ptr %34, null
  br i1 %.not.i.i.i.i.i.i, label %_ZNSt16allocator_traitsISaIN5Ipopt8SmartPtrINS0_7JournalEEEEE9constructIS3_JRKS3_EEEvRS4_PT_DpOT0_.exit.i, label %35

35:                                               ; preds = %33
  %36 = getelementptr inbounds i8, ptr %34, i64 8
  %37 = load i32, ptr %36, align 8
  %38 = add nsw i32 %37, 1
  store i32 %38, ptr %36, align 8
  %.pr.i.i.i.i = load ptr, ptr %30, align 8
  %.not.i.i.i.i.i.i.i = icmp eq ptr %.pr.i.i.i.i, null
  br i1 %.not.i.i.i.i.i.i.i, label %_ZNSt16allocator_traitsISaIN5Ipopt8SmartPtrINS0_7JournalEEEEE9constructIS3_JRKS3_EEEvRS4_PT_DpOT0_.exit.i, label %39

39:                                               ; preds = %35
  %40 = getelementptr inbounds i8, ptr %.pr.i.i.i.i, i64 8
  %41 = load i32, ptr %40, align 8
  %42 = add nsw i32 %41, -1
  store i32 %42, ptr %40, align 8
  %43 = load ptr, ptr %30, align 8
  %44 = getelementptr inbounds i8, ptr %43, i64 8
  %45 = load i32, ptr %44, align 8
  %46 = icmp eq i32 %45, 0
  br i1 %46, label %47, label %_ZNSt16allocator_traitsISaIN5Ipopt8SmartPtrINS0_7JournalEEEEE9constructIS3_JRKS3_EEEvRS4_PT_DpOT0_.exit.i

47:                                               ; preds = %39
  %48 = load ptr, ptr %43, align 8
  %49 = getelementptr inbounds i8, ptr %48, i64 8
  %50 = load ptr, ptr %49, align 8
  call void %50(ptr noundef nonnull align 8 dereferenceable(176) %43) #20
  br label %_ZNSt16allocator_traitsISaIN5Ipopt8SmartPtrINS0_7JournalEEEEE9constructIS3_JRKS3_EEEvRS4_PT_DpOT0_.exit.i

_ZNSt16allocator_traitsISaIN5Ipopt8SmartPtrINS0_7JournalEEEEE9constructIS3_JRKS3_EEEvRS4_PT_DpOT0_.exit.i: ; preds = %47, %39, %35, %33
  store ptr %34, ptr %30, align 8
  %51 = load ptr, ptr %29, align 8
  %52 = getelementptr inbounds i8, ptr %51, i64 8
  store ptr %52, ptr %29, align 8
  br label %_ZNSt6vectorIN5Ipopt8SmartPtrINS0_7JournalEEESaIS3_EE9push_backERKS3_.exit

53:                                               ; preds = %28
  %54 = getelementptr inbounds i8, ptr %0, i64 16
  invoke void @_ZNSt6vectorIN5Ipopt8SmartPtrINS0_7JournalEEESaIS3_EE17_M_realloc_insertIJRKS3_EEEvN9__gnu_cxx17__normal_iteratorIPS3_S5_EEDpOT_(ptr noundef nonnull align 8 dereferenceable(24) %54, ptr %30, ptr noundef nonnull align 8 dereferenceable(8) %1)
          to label %_ZNSt6vectorIN5Ipopt8SmartPtrINS0_7JournalEEESaIS3_EE9push_backERKS3_.exit unwind label %16

_ZNSt6vectorIN5Ipopt8SmartPtrINS0_7JournalEEESaIS3_EE9push_backERKS3_.exit: ; preds = %_ZNSt16allocator_traitsISaIN5Ipopt8SmartPtrINS0_7JournalEEEEE9constructIS3_JRKS3_EEEvRS4_PT_DpOT0_.exit.i, %53
  %.pr = load ptr, ptr %4, align 8
  %.not.i.i6 = icmp eq ptr %.pr, null
  br i1 %.not.i.i6, label %_ZN5Ipopt8SmartPtrINS_7JournalEED2Ev.exit7, label %_ZNSt6vectorIN5Ipopt8SmartPtrINS0_7JournalEEESaIS3_EE9push_backERKS3_.exit.thread

_ZNSt6vectorIN5Ipopt8SmartPtrINS0_7JournalEEESaIS3_EE9push_backERKS3_.exit.thread: ; preds = %12, %_ZNSt6vectorIN5Ipopt8SmartPtrINS0_7JournalEEESaIS3_EE9push_backERKS3_.exit
  %55 = phi ptr [ %.pr, %_ZNSt6vectorIN5Ipopt8SmartPtrINS0_7JournalEEESaIS3_EE9push_backERKS3_.exit ], [ %13, %12 ]
  %56 = getelementptr inbounds i8, ptr %55, i64 8
  %57 = load i32, ptr %56, align 8
  %58 = add nsw i32 %57, -1
  store i32 %58, ptr %56, align 8
  %59 = icmp eq i32 %58, 0
  br i1 %59, label %60, label %_ZN5Ipopt8SmartPtrINS_7JournalEED2Ev.exit7

60:                                               ; preds = %_ZNSt6vectorIN5Ipopt8SmartPtrINS0_7JournalEEESaIS3_EE9push_backERKS3_.exit.thread
  %61 = load ptr, ptr %55, align 8
  %62 = getelementptr inbounds i8, ptr %61, i64 8
  %63 = load ptr, ptr %62, align 8
  call void %63(ptr noundef nonnull align 8 dereferenceable(176) %55) #20
  br label %_ZN5Ipopt8SmartPtrINS_7JournalEED2Ev.exit7

_ZN5Ipopt8SmartPtrINS_7JournalEED2Ev.exit7:       ; preds = %_ZNSt6vectorIN5Ipopt8SmartPtrINS0_7JournalEEESaIS3_EE9push_backERKS3_.exit, %_ZNSt6vectorIN5Ipopt8SmartPtrINS0_7JournalEEESaIS3_EE9push_backERKS3_.exit.thread, %60
  call void @_ZNSt7__cxx1112basic_stringIcSt11char_traitsIcESaIcEED1Ev(ptr noundef nonnull align 8 dereferenceable(32) %3) #20
  ret i1 %.not

_ZN5Ipopt8SmartPtrINS_7JournalEED2Ev.exit:        ; preds = %24, %19, %16, %14
  %.pn = phi { ptr, i32 } [ %15, %14 ], [ %17, %16 ], [ %17, %19 ], [ %17, %24 ]
  call void @_ZNSt7__cxx1112basic_stringIcSt11char_traitsIcESaIcEED1Ev(ptr noundef nonnull align 8 dereferenceable(32) %3) #20
  resume { ptr, i32 } %.pn
}